Certificate:
    Data:
        Version: 3 (0x2)
        Serial Number: 1 (0x1)
    Signature Algorithm: sha1WithRSAEncryption
        Issuer: C=CN, ST=ZJ, L=HZ, O=MOLO, OU=IT, CN=www.jcliang.com.cn/emailAddress=lxq520064@126.com
        Validity
            Not Before: Dec 16 14:26:05 2018 GMT
            Not After : Dec 16 14:26:05 2019 GMT
        Subject: C=CN, ST=ZJ, O=MOLO, OU=IT, CN=www.jcliang.com.cn/emailAddress=lxq520064@126.com
        Subject Public Key Info:
            Public Key Algorithm: rsaEncryption
                Public-Key: (1024 bit)
                Modulus:
                    00:a8:75:2e:76:06:4a:34:3a:3e:d5:53:7e:22:a1:
                    42:c2:b1:bc:34:5b:17:44:66:2b:76:ac:96:9e:88:
                    24:65:8b:88:ae:19:c3:af:f2:22:70:32:bd:0f:ce:
                    a3:df:c8:83:97:f5:6e:d2:24:b1:90:00:91:0a:41:
                    aa:1f:f8:74:5b:b9:db:80:70:b7:3f:ac:17:41:d7:
                    59:18:e4:3a:7e:8e:e6:a3:16:77:8e:65:b8:6c:91:
                    0a:4a:33:a7:b8:de:86:0c:ea:bf:03:a9:e2:54:d8:
                    e3:29:08:f1:28:60:ce:cf:d9:43:da:89:bf:c0:18:
                    b2:1f:75:f9:e8:fc:93:22:ed
                Exponent: 65537 (0x10001)
        X509v3 extensions:
            X509v3 Basic Constraints: 
                CA:FALSE
            Netscape Comment: 
                OpenSSL Generated Certificate
            X509v3 Subject Key Identifier: 
                AB:7D:FB:5D:BB:61:3D:50:A5:40:62:8F:90:D1:B1:77:58:A1:AC:DC
            X509v3 Authority Key Identifier: 
                DirName:/C=CN/ST=ZJ/L=HZ/O=MOLO/OU=IT/CN=www.jcliang.com.cn/emailAddress=lxq520064@126.com
                serial:C8:19:BD:F0:5D:40:51:03

    Signature Algorithm: sha1WithRSAEncryption
         45:f9:9e:00:5d:04:41:aa:ae:b7:50:d0:3c:93:09:bc:7e:32:
         39:fe:3b:34:50:e9:e1:cd:4f:8d:f9:94:b7:a1:39:c8:59:4c:
         da:26:78:3a:12:9c:e8:46:66:03:c9:f0:2b:c9:e7:02:5d:e5:
         b0:41:a3:ff:65:75:4c:38:1d:99:bd:04:9b:f6:e5:b8:bd:8a:
         ac:05:78:89:3d:99:c8:e4:82:de:ef:44:4c:9e:81:55:fe:f8:
         b1:10:27:35:c9:7f:c4:3f:7d:a3:16:61:32:5b:a0:b5:6c:a4:
         24:df:d7:76:54:86:73:b2:d6:a3:bb:7c:0a:94:29:d0:7c:c4:
         aa:6f:bb:ed:4e:14:b9:08:68:07:24:47:6e:30:a5:f0:ea:2b:
         8c:97:cc:57:9a:aa:f0:ca:30:81:81:54:87:8e:15:0e:0b:0a:
         75:b6:36:58:5b:0d:9e:36:43:0c:e7:4a:6e:32:88:57:9a:16:
         b0:1a:d9:0f:2e:f1:be:8d:ef:31:d2:83:d0:d7:54:34:2a:05:
         07:3b:9e:ca:f1:05:29:58:3e:c9:6f:d4:46:b8:b8:3e:d7:ae:
         cb:7d:a7:76:52:ac:87:5b:7f:fb:9e:30:e0:46:e7:83:1c:81:
         a3:7e:1e:ab:75:00:c0:1a:5e:0d:4a:e7:36:0b:ef:4c:e0:de:
         56:a5:c6:1b
-----BEGIN CERTIFICATE-----
MIID7zCCAtegAwIBAgIBATANBgkqhkiG9w0BAQUFADCBgjELMAkGA1UEBhMCQ04x
CzAJBgNVBAgMAlpKMQswCQYDVQQHDAJIWjENMAsGA1UECgwETU9MTzELMAkGA1UE
CwwCSVQxGzAZBgNVBAMMEnd3dy5qY2xpYW5nLmNvbS5jbjEgMB4GCSqGSIb3DQEJ
ARYRbHhxNTIwMDY0QDEyNi5jb20wHhcNMTgxMjE2MTQyNjA1WhcNMTkxMjE2MTQy
NjA1WjB1MQswCQYDVQQGEwJDTjELMAkGA1UECAwCWkoxDTALBgNVBAoMBE1PTE8x
CzAJBgNVBAsMAklUMRswGQYDVQQDDBJ3d3cuamNsaWFuZy5jb20uY24xIDAeBgkq
hkiG9w0BCQEWEWx4cTUyMDA2NEAxMjYuY29tMIGfMA0GCSqGSIb3DQEBAQUAA4GN
ADCBiQKBgQCodS52Bko0Oj7VU34ioULCsbw0WxdEZit2rJaeiCRli4iuGcOv8iJw
Mr0PzqPfyIOX9W7SJLGQAJEKQaof+HRbuduAcLc/rBdB11kY5Dp+juajFneOZbhs
kQpKM6e43oYM6r8DqeJU2OMpCPEoYM7P2UPaib/AGLIfdfno/JMi7QIDAQABo4H/
MIH8MAkGA1UdEwQCMAAwLAYJYIZIAYb4QgENBB8WHU9wZW5TU0wgR2VuZXJhdGVk
IENlcnRpZmljYXRlMB0GA1UdDgQWBBSrfftdu2E9UKVAYo+Q0bF3WKGs3DCBoQYD
VR0jBIGZMIGWoYGIpIGFMIGCMQswCQYDVQQGEwJDTjELMAkGA1UECAwCWkoxCzAJ
BgNVBAcMAkhaMQ0wCwYDVQQKDARNT0xPMQswCQYDVQQLDAJJVDEbMBkGA1UEAwwS
d3d3LmpjbGlhbmcuY29tLmNuMSAwHgYJKoZIhvcNAQkBFhFseHE1MjAwNjRAMTI2
LmNvbYIJAMgZvfBdQFEDMA0GCSqGSIb3DQEBBQUAA4IBAQBF+Z4AXQRBqq63UNA8
kwm8fjI5/js0UOnhzU+N+ZS3oTnIWUzaJng6EpzoRmYDyfAryecCXeWwQaP/ZXVM
OB2ZvQSb9uW4vYqsBXiJPZnI5ILe70RMnoFV/vixECc1yX/EP32jFmEyW6C1bKQk
39d2VIZzstaju3wKlCnQfMSqb7vtThS5CGgHJEduMKXw6iuMl8xXmqrwyjCBgVSH
jhUOCwp1tjZYWw2eNkMM50puMohXmhawGtkPLvG+je8x0oPQ11Q0KgUHO57K8QUp
WD7Jb9RGuLg+167Lfad2UqyHW3/7njDgRueDHIGjfh6rdQDAGl4NSuc2C+9M4N5W
pcYb
-----END CERTIFICATE-----
